; Function Attrs: nounwind uwtable
define hidden i32 @lsarpc_dissect_struct_lsa_QosInfo(ptr noundef %0, i32 noundef %1, ptr noundef %2, ptr noundef %3, ptr noundef %4, ptr noundef %5, i32 noundef %6, i32 %7) local_unnamed_addr #0 {
  %9 = alloca i32, align 4
  %10 = getelementptr inbounds nuw i8, ptr %4, i64 72
  %11 = load ptr, ptr %10, align 8
  %12 = getelementptr inbounds nuw i8, ptr %11, i64 96
  %13 = load i32, ptr %12, align 8
  %14 = and i32 %13, 1
  %.not = icmp eq i32 %14, 0
  %15 = getelementptr inbounds nuw i8, ptr %4, i64 28
  %16 = load i32, ptr %15, align 4
  %.not52 = icmp ne i32 %16, 0
  br i1 %.not, label %22, label %17

17:                                               ; preds = %8
  %18 = and i32 %1, 7
  %.not55 = icmp eq i32 %18, 0
  %or.cond = or i1 %.not55, %.not52
  br i1 %or.cond, label %27, label %19

19:                                               ; preds = %17
  %20 = and i32 %1, -8
  %21 = add i32 %20, 8
  br label %27

22:                                               ; preds = %8
  %23 = and i32 %1, 3
  %.not53 = icmp eq i32 %23, 0
  %or.cond60 = or i1 %.not53, %.not52
  br i1 %or.cond60, label %27, label %24

24:                                               ; preds = %22
  %25 = and i32 %1, -4
  %26 = add i32 %25, 4
  br label %27

27:                                               ; preds = %22, %24, %17, %19
  %.0 = phi i32 [ %1, %17 ], [ %21, %19 ], [ %1, %22 ], [ %26, %24 ]
  %.not56 = icmp eq ptr %3, null
  br i1 %.not56, label %32, label %28

28:                                               ; preds = %27
  %29 = tail call ptr @proto_tree_add_item(ptr noundef nonnull %3, i32 noundef %6, ptr noundef %0, i32 noundef %.0, i32 noundef -1, i32 noundef 0) #5
  %30 = load i32, ptr @ett_lsarpc_lsa_QosInfo, align 4
  %31 = tail call ptr @proto_item_add_subtree(ptr noundef %29, i32 noundef %30) #5
  br label %32

32:                                               ; preds = %28, %27
  %.050 = phi ptr [ %29, %28 ], [ null, %27 ]
  %.049 = phi ptr [ %31, %28 ], [ null, %27 ]
  %33 = load i32, ptr @hf_lsarpc_lsa_QosInfo_len, align 4
  %34 = tail call i32 @dissect_ndr_uint3264(ptr noundef %0, i32 noundef %.0, ptr noundef %2, ptr noundef %.049, ptr noundef nonnull %4, ptr noundef %5, i32 noundef %33, ptr noundef null) #5
  %35 = load i32, ptr @hf_lsarpc_lsa_QosInfo_impersonation_level, align 4
  call void @llvm.lifetime.start.p0(i64 4, ptr nonnull %9)
  store i32 0, ptr %9, align 4
  %36 = call i32 @dissect_ndr_uint1632(ptr noundef %0, i32 noundef %34, ptr noundef %2, ptr noundef %.049, ptr noundef nonnull %4, ptr noundef %5, i32 noundef %35, ptr noundef nonnull %9) #5
  call void @llvm.lifetime.end.p0(i64 4, ptr nonnull %9)
  %37 = load i32, ptr @hf_lsarpc_lsa_QosInfo_context_mode, align 4
  %38 = call i32 @PIDL_dissect_uint8(ptr noundef %0, i32 noundef %36, ptr noundef %2, ptr noundef %.049, ptr noundef nonnull %4, ptr noundef %5, i32 noundef %37, i32 noundef 0) #5
  %39 = load i32, ptr @hf_lsarpc_lsa_QosInfo_effective_only, align 4
  %40 = call i32 @PIDL_dissect_uint8(ptr noundef %0, i32 noundef %38, ptr noundef %2, ptr noundef %.049, ptr noundef nonnull %4, ptr noundef %5, i32 noundef %39, i32 noundef 0) #5
  %41 = sub i32 %40, %.0
  call void @proto_item_set_len(ptr noundef %.050, i32 noundef %41) #5
  %42 = load ptr, ptr %10, align 8
  %43 = getelementptr inbounds nuw i8, ptr %42, i64 96
  %44 = load i32, ptr %43, align 8
  %45 = and i32 %44, 1
  %.not57 = icmp eq i32 %45, 0
  br i1 %.not57, label %53, label %46

46:                                               ; preds = %32
  %47 = getelementptr inbounds nuw i8, ptr %4, i64 28
  %48 = load i32, ptr %47, align 4
  %.not58 = icmp ne i32 %48, 0
  %49 = and i32 %40, 7
  %.not59 = icmp eq i32 %49, 0
  %or.cond61 = or i1 %.not59, %.not58
  br i1 %or.cond61, label %53, label %50

50:                                               ; preds = %46
  %51 = and i32 %40, -8
  %52 = add i32 %51, 8
  br label %53

53:                                               ; preds = %50, %46, %32
  %.1 = phi i32 [ %40, %46 ], [ %52, %50 ], [ %40, %32 ]
  ret i32 %.1
}